target datalayout = "e-m:e-p270:32:32-p271:32:32-p272:64:64-i64:64-i128:128-f80:128-n8:16:32:64-S128"
target triple = "x86_64-pc-linux-gnu"

%struct.dsa_gen_ctx = type { ptr, ptr, i32, i64, i64, ptr, i64, i32, i32, i32, i32, ptr, ptr, ptr, ptr }
%struct.ffc_params_st = type { ptr, ptr, ptr, ptr, ptr, i64, i32, i32, i32, i32, i32, ptr, ptr, i32 }

@.str = private unnamed_addr constant [57 x i8] c"../openssl/providers/implementations/keymgmt/dsa_kmgmt.c\00", align 1
@__func__.dsa_gen = private unnamed_addr constant [8 x i8] c"dsa_gen\00", align 1
@.str.14 = private unnamed_addr constant [37 x i8] c"gen_type set to unsupported value %d\00", align 1

; Function Attrs: nounwind uwtable
define internal ptr @dsa_gen(ptr noundef %0, ptr noundef %1, ptr noundef %2) #0 {
  %4 = alloca ptr, align 8
  %5 = alloca ptr, align 8
  %6 = alloca ptr, align 8
  %7 = alloca ptr, align 8
  %8 = alloca ptr, align 8
  %9 = alloca ptr, align 8
  %10 = alloca ptr, align 8
  %11 = alloca i32, align 4
  %12 = alloca ptr, align 8
  %13 = alloca i32, align 4
  store ptr %0, ptr %5, align 8, !tbaa !3
  store ptr %1, ptr %6, align 8, !tbaa !3
  store ptr %2, ptr %7, align 8, !tbaa !3
  call void @llvm.lifetime.start.p0(i64 8, ptr %8) #7
  %14 = load ptr, ptr %5, align 8, !tbaa !3
  store ptr %14, ptr %8, align 8, !tbaa !13
  call void @llvm.lifetime.start.p0(i64 8, ptr %9) #7
  store ptr null, ptr %9, align 8, !tbaa !27
  call void @llvm.lifetime.start.p0(i64 8, ptr %10) #7
  store ptr null, ptr %10, align 8, !tbaa !36
  call void @llvm.lifetime.start.p0(i64 4, ptr %11) #7
  store i32 0, ptr %11, align 4, !tbaa !7
  call void @llvm.lifetime.start.p0(i64 8, ptr %12) #7
  %15 = call i32 @ossl_prov_is_running()
  %16 = icmp ne i32 %15, 0
  br i1 %16, label %17, label %20

17:                                               ; preds = %3
  %18 = load ptr, ptr %8, align 8, !tbaa !13
  %19 = icmp eq ptr %18, null
  br i1 %19, label %20, label %21

20:                                               ; preds = %17, %3
  store ptr null, ptr %4, align 8
  store i32 1, ptr %13, align 4
  br label %221

21:                                               ; preds = %17
  %22 = load ptr, ptr %8, align 8, !tbaa !13
  %23 = getelementptr inbounds nuw %struct.dsa_gen_ctx, ptr %22, i32 0, i32 0
  %24 = load ptr, ptr %23, align 8, !tbaa !20
  %25 = call ptr @ossl_dsa_new(ptr noundef %24)
  store ptr %25, ptr %9, align 8, !tbaa !27
  %26 = load ptr, ptr %9, align 8, !tbaa !27
  %27 = icmp eq ptr %26, null
  br i1 %27, label %28, label %29

28:                                               ; preds = %21
  store ptr null, ptr %4, align 8
  store i32 1, ptr %13, align 4
  br label %221

29:                                               ; preds = %21
  %30 = load ptr, ptr %8, align 8, !tbaa !13
  %31 = getelementptr inbounds nuw %struct.dsa_gen_ctx, ptr %30, i32 0, i32 8
  %32 = load i32, ptr %31, align 4, !tbaa !23
  %33 = icmp eq i32 %32, 2
  br i1 %33, label %34, label %42

34:                                               ; preds = %29
  %35 = load ptr, ptr %8, align 8, !tbaa !13
  %36 = getelementptr inbounds nuw %struct.dsa_gen_ctx, ptr %35, i32 0, i32 3
  %37 = load i64, ptr %36, align 8, !tbaa !21
  %38 = icmp uge i64 %37, 2048
  %39 = select i1 %38, i32 0, i32 1
  %40 = load ptr, ptr %8, align 8, !tbaa !13
  %41 = getelementptr inbounds nuw %struct.dsa_gen_ctx, ptr %40, i32 0, i32 8
  store i32 %39, ptr %41, align 4, !tbaa !23
  br label %42

42:                                               ; preds = %34, %29
  %43 = load ptr, ptr %8, align 8, !tbaa !13
  %44 = getelementptr inbounds nuw %struct.dsa_gen_ctx, ptr %43, i32 0, i32 8
  %45 = load i32, ptr %44, align 4, !tbaa !23
  %46 = icmp sge i32 %45, 0
  br i1 %46, label %47, label %52

47:                                               ; preds = %42
  %48 = load ptr, ptr %8, align 8, !tbaa !13
  %49 = getelementptr inbounds nuw %struct.dsa_gen_ctx, ptr %48, i32 0, i32 8
  %50 = load i32, ptr %49, align 4, !tbaa !23
  %51 = icmp sle i32 %50, 2
  br label %52

52:                                               ; preds = %47, %42
  %53 = phi i1 [ false, %42 ], [ %51, %47 ]
  %54 = zext i1 %53 to i32
  %55 = icmp ne i32 %54, 0
  %56 = xor i1 %55, true
  %57 = xor i1 %56, true
  %58 = zext i1 %57 to i32
  %59 = sext i32 %58 to i64
  %60 = call i64 @llvm.expect.i64(i64 %59, i64 1)
  %61 = icmp ne i64 %60, 0
  br i1 %61, label %66, label %62

62:                                               ; preds = %52
  call void @ERR_new()
  call void @ERR_set_debug(ptr noundef @.str, i32 noundef 632, ptr noundef @__func__.dsa_gen)
  %63 = load ptr, ptr %8, align 8, !tbaa !13
  %64 = getelementptr inbounds nuw %struct.dsa_gen_ctx, ptr %63, i32 0, i32 8
  %65 = load i32, ptr %64, align 4, !tbaa !23
  call void (i32, i32, ptr, ...) @ERR_set_error(i32 noundef 57, i32 noundef 786691, ptr noundef @.str.14, i32 noundef %65)
  br label %213

66:                                               ; preds = %52
  %67 = load ptr, ptr %6, align 8, !tbaa !3
  %68 = load ptr, ptr %8, align 8, !tbaa !13
  %69 = getelementptr inbounds nuw %struct.dsa_gen_ctx, ptr %68, i32 0, i32 13
  store ptr %67, ptr %69, align 8, !tbaa !38
  %70 = load ptr, ptr %7, align 8, !tbaa !3
  %71 = load ptr, ptr %8, align 8, !tbaa !13
  %72 = getelementptr inbounds nuw %struct.dsa_gen_ctx, ptr %71, i32 0, i32 14
  store ptr %70, ptr %72, align 8, !tbaa !39
  %73 = call ptr @BN_GENCB_new()
  store ptr %73, ptr %10, align 8, !tbaa !36
  %74 = load ptr, ptr %10, align 8, !tbaa !36
  %75 = icmp ne ptr %74, null
  br i1 %75, label %76, label %79

76:                                               ; preds = %66
  %77 = load ptr, ptr %10, align 8, !tbaa !36
  %78 = load ptr, ptr %5, align 8, !tbaa !3
  call void @BN_GENCB_set(ptr noundef %77, ptr noundef @dsa_gencb, ptr noundef %78)
  br label %79

79:                                               ; preds = %76, %66
  %80 = load ptr, ptr %9, align 8, !tbaa !27
  %81 = call ptr @ossl_dsa_get0_params(ptr noundef %80)
  store ptr %81, ptr %12, align 8, !tbaa !40
  %82 = load ptr, ptr %8, align 8, !tbaa !13
  %83 = getelementptr inbounds nuw %struct.dsa_gen_ctx, ptr %82, i32 0, i32 1
  %84 = load ptr, ptr %83, align 8, !tbaa !29
  %85 = icmp ne ptr %84, null
  br i1 %85, label %86, label %94

86:                                               ; preds = %79
  %87 = load ptr, ptr %12, align 8, !tbaa !40
  %88 = load ptr, ptr %8, align 8, !tbaa !13
  %89 = getelementptr inbounds nuw %struct.dsa_gen_ctx, ptr %88, i32 0, i32 1
  %90 = load ptr, ptr %89, align 8, !tbaa !29
  %91 = call i32 @ossl_ffc_params_copy(ptr noundef %87, ptr noundef %90)
  %92 = icmp ne i32 %91, 0
  br i1 %92, label %94, label %93

93:                                               ; preds = %86
  br label %213

94:                                               ; preds = %86, %79
  %95 = load ptr, ptr %8, align 8, !tbaa !13
  %96 = getelementptr inbounds nuw %struct.dsa_gen_ctx, ptr %95, i32 0, i32 5
  %97 = load ptr, ptr %96, align 8, !tbaa !41
  %98 = icmp ne ptr %97, null
  br i1 %98, label %99, label %110

99:                                               ; preds = %94
  %100 = load ptr, ptr %12, align 8, !tbaa !40
  %101 = load ptr, ptr %8, align 8, !tbaa !13
  %102 = getelementptr inbounds nuw %struct.dsa_gen_ctx, ptr %101, i32 0, i32 5
  %103 = load ptr, ptr %102, align 8, !tbaa !41
  %104 = load ptr, ptr %8, align 8, !tbaa !13
  %105 = getelementptr inbounds nuw %struct.dsa_gen_ctx, ptr %104, i32 0, i32 6
  %106 = load i64, ptr %105, align 8, !tbaa !42
  %107 = call i32 @ossl_ffc_params_set_seed(ptr noundef %100, ptr noundef %103, i64 noundef %106)
  %108 = icmp ne i32 %107, 0
  br i1 %108, label %110, label %109

109:                                              ; preds = %99
  br label %213

110:                                              ; preds = %99, %94
  %111 = load ptr, ptr %8, align 8, !tbaa !13
  %112 = getelementptr inbounds nuw %struct.dsa_gen_ctx, ptr %111, i32 0, i32 7
  %113 = load i32, ptr %112, align 8, !tbaa !24
  %114 = icmp ne i32 %113, -1
  br i1 %114, label %115, label %130

115:                                              ; preds = %110
  %116 = load ptr, ptr %12, align 8, !tbaa !40
  %117 = load ptr, ptr %8, align 8, !tbaa !13
  %118 = getelementptr inbounds nuw %struct.dsa_gen_ctx, ptr %117, i32 0, i32 7
  %119 = load i32, ptr %118, align 8, !tbaa !24
  call void @ossl_ffc_params_set_gindex(ptr noundef %116, i32 noundef %119)
  %120 = load ptr, ptr %8, align 8, !tbaa !13
  %121 = getelementptr inbounds nuw %struct.dsa_gen_ctx, ptr %120, i32 0, i32 9
  %122 = load i32, ptr %121, align 8, !tbaa !25
  %123 = icmp ne i32 %122, -1
  br i1 %123, label %124, label %129

124:                                              ; preds = %115
  %125 = load ptr, ptr %12, align 8, !tbaa !40
  %126 = load ptr, ptr %8, align 8, !tbaa !13
  %127 = getelementptr inbounds nuw %struct.dsa_gen_ctx, ptr %126, i32 0, i32 9
  %128 = load i32, ptr %127, align 8, !tbaa !25
  call void @ossl_ffc_params_set_pcounter(ptr noundef %125, i32 noundef %128)
  br label %129

129:                                              ; preds = %124, %115
  br label %141

130:                                              ; preds = %110
  %131 = load ptr, ptr %8, align 8, !tbaa !13
  %132 = getelementptr inbounds nuw %struct.dsa_gen_ctx, ptr %131, i32 0, i32 10
  %133 = load i32, ptr %132, align 4, !tbaa !26
  %134 = icmp ne i32 %133, 0
  br i1 %134, label %135, label %140

135:                                              ; preds = %130
  %136 = load ptr, ptr %12, align 8, !tbaa !40
  %137 = load ptr, ptr %8, align 8, !tbaa !13
  %138 = getelementptr inbounds nuw %struct.dsa_gen_ctx, ptr %137, i32 0, i32 10
  %139 = load i32, ptr %138, align 4, !tbaa !26
  call void @ossl_ffc_params_set_h(ptr noundef %136, i32 noundef %139)
  br label %140

140:                                              ; preds = %135, %130
  br label %141

141:                                              ; preds = %140, %129
  %142 = load ptr, ptr %8, align 8, !tbaa !13
  %143 = getelementptr inbounds nuw %struct.dsa_gen_ctx, ptr %142, i32 0, i32 11
  %144 = load ptr, ptr %143, align 8, !tbaa !34
  %145 = icmp ne ptr %144, null
  br i1 %145, label %146, label %154

146:                                              ; preds = %141
  %147 = load ptr, ptr %12, align 8, !tbaa !40
  %148 = load ptr, ptr %8, align 8, !tbaa !13
  %149 = getelementptr inbounds nuw %struct.dsa_gen_ctx, ptr %148, i32 0, i32 11
  %150 = load ptr, ptr %149, align 8, !tbaa !34
  %151 = load ptr, ptr %8, align 8, !tbaa !13
  %152 = getelementptr inbounds nuw %struct.dsa_gen_ctx, ptr %151, i32 0, i32 12
  %153 = load ptr, ptr %152, align 8, !tbaa !35
  call void @ossl_ffc_set_digest(ptr noundef %147, ptr noundef %150, ptr noundef %153)
  br label %154

154:                                              ; preds = %146, %141
  %155 = load ptr, ptr %8, align 8, !tbaa !13
  %156 = getelementptr inbounds nuw %struct.dsa_gen_ctx, ptr %155, i32 0, i32 2
  %157 = load i32, ptr %156, align 8, !tbaa !15
  %158 = and i32 %157, 4
  %159 = icmp ne i32 %158, 0
  br i1 %159, label %160, label %178

160:                                              ; preds = %154
  %161 = load ptr, ptr %9, align 8, !tbaa !27
  %162 = load ptr, ptr %8, align 8, !tbaa !13
  %163 = getelementptr inbounds nuw %struct.dsa_gen_ctx, ptr %162, i32 0, i32 8
  %164 = load i32, ptr %163, align 4, !tbaa !23
  %165 = load ptr, ptr %8, align 8, !tbaa !13
  %166 = getelementptr inbounds nuw %struct.dsa_gen_ctx, ptr %165, i32 0, i32 3
  %167 = load i64, ptr %166, align 8, !tbaa !21
  %168 = trunc i64 %167 to i32
  %169 = load ptr, ptr %8, align 8, !tbaa !13
  %170 = getelementptr inbounds nuw %struct.dsa_gen_ctx, ptr %169, i32 0, i32 4
  %171 = load i64, ptr %170, align 8, !tbaa !22
  %172 = trunc i64 %171 to i32
  %173 = load ptr, ptr %10, align 8, !tbaa !36
  %174 = call i32 @ossl_dsa_generate_ffc_parameters(ptr noundef %161, i32 noundef %164, i32 noundef %168, i32 noundef %172, ptr noundef %173)
  %175 = icmp sle i32 %174, 0
  br i1 %175, label %176, label %177

176:                                              ; preds = %160
  br label %213

177:                                              ; preds = %160
  br label %178

178:                                              ; preds = %177, %154
  %179 = load ptr, ptr %12, align 8, !tbaa !40
  %180 = load ptr, ptr %8, align 8, !tbaa !13
  %181 = getelementptr inbounds nuw %struct.dsa_gen_ctx, ptr %180, i32 0, i32 8
  %182 = load i32, ptr %181, align 4, !tbaa !23
  %183 = icmp eq i32 %182, 1
  %184 = zext i1 %183 to i32
  call void @ossl_ffc_params_enable_flags(ptr noundef %179, i32 noundef 4, i32 noundef %184)
  %185 = load ptr, ptr %8, align 8, !tbaa !13
  %186 = getelementptr inbounds nuw %struct.dsa_gen_ctx, ptr %185, i32 0, i32 2
  %187 = load i32, ptr %186, align 8, !tbaa !15
  %188 = and i32 %187, 3
  %189 = icmp ne i32 %188, 0
  br i1 %189, label %190, label %212

190:                                              ; preds = %178
  %191 = load ptr, ptr %12, align 8, !tbaa !40
  %192 = getelementptr inbounds nuw %struct.ffc_params_st, ptr %191, i32 0, i32 0
  %193 = load ptr, ptr %192, align 8, !tbaa !43
  %194 = icmp eq ptr %193, null
  br i1 %194, label %205, label %195

195:                                              ; preds = %190
  %196 = load ptr, ptr %12, align 8, !tbaa !40
  %197 = getelementptr inbounds nuw %struct.ffc_params_st, ptr %196, i32 0, i32 1
  %198 = load ptr, ptr %197, align 8, !tbaa !46
  %199 = icmp eq ptr %198, null
  br i1 %199, label %205, label %200

200:                                              ; preds = %195
  %201 = load ptr, ptr %12, align 8, !tbaa !40
  %202 = getelementptr inbounds nuw %struct.ffc_params_st, ptr %201, i32 0, i32 2
  %203 = load ptr, ptr %202, align 8, !tbaa !47
  %204 = icmp eq ptr %203, null
  br i1 %204, label %205, label %206

205:                                              ; preds = %200, %195, %190
  br label %213

206:                                              ; preds = %200
  %207 = load ptr, ptr %9, align 8, !tbaa !27
  %208 = call i32 @DSA_generate_key(ptr noundef %207)
  %209 = icmp sle i32 %208, 0
  br i1 %209, label %210, label %211

210:                                              ; preds = %206
  br label %213

211:                                              ; preds = %206
  br label %212

212:                                              ; preds = %211, %178
  store i32 1, ptr %11, align 4, !tbaa !7
  br label %213

213:                                              ; preds = %212, %210, %205, %176, %109, %93, %62
  %214 = load i32, ptr %11, align 4, !tbaa !7
  %215 = icmp sle i32 %214, 0
  br i1 %215, label %216, label %218

216:                                              ; preds = %213
  %217 = load ptr, ptr %9, align 8, !tbaa !27
  call void @DSA_free(ptr noundef %217)
  store ptr null, ptr %9, align 8, !tbaa !27
  br label %218

218:                                              ; preds = %216, %213
  %219 = load ptr, ptr %10, align 8, !tbaa !36
  call void @BN_GENCB_free(ptr noundef %219)
  %220 = load ptr, ptr %9, align 8, !tbaa !27
  store ptr %220, ptr %4, align 8
  store i32 1, ptr %13, align 4
  br label %221

221:                                              ; preds = %218, %28, %20
  call void @llvm.lifetime.end.p0(i64 8, ptr %12) #7
  call void @llvm.lifetime.end.p0(i64 4, ptr %11) #7
  call void @llvm.lifetime.end.p0(i64 8, ptr %10) #7
  call void @llvm.lifetime.end.p0(i64 8, ptr %9) #7
  call void @llvm.lifetime.end.p0(i64 8, ptr %8) #7
  %222 = load ptr, ptr %4, align 8
  ret ptr %222
}