; Function Attrs: nounwind uwtable
define internal ptr @dsa_gen(ptr noundef %0, ptr noundef %1, ptr noundef %2) #0 {
  %4 = tail call i32 @ossl_prov_is_running() #7
  %5 = icmp eq i32 %4, 0
  %6 = icmp eq ptr %0, null
  %or.cond = or i1 %6, %5
  br i1 %or.cond, label %93, label %7

7:                                                ; preds = %3
  %8 = load ptr, ptr %0, align 8, !tbaa !13
  %9 = tail call ptr @ossl_dsa_new(ptr noundef %8) #7
  %10 = icmp eq ptr %9, null
  br i1 %10, label %93, label %11

11:                                               ; preds = %7
  %12 = getelementptr inbounds nuw i8, ptr %0, i64 60
  %13 = load i32, ptr %12, align 4, !tbaa !16
  %14 = icmp eq i32 %13, 2
  br i1 %14, label %.thread, label %19

.thread:                                          ; preds = %11
  %15 = getelementptr inbounds nuw i8, ptr %0, i64 24
  %16 = load i64, ptr %15, align 8, !tbaa !14
  %17 = icmp ult i64 %16, 2048
  %18 = zext i1 %17 to i32
  store i32 %18, ptr %12, align 4, !tbaa !16
  br label %22

19:                                               ; preds = %11
  %spec.select = icmp ult i32 %13, 3
  br i1 %spec.select, label %22, label %20, !prof !35

20:                                               ; preds = %19
  tail call void @ERR_new() #7
  tail call void @ERR_set_debug(ptr noundef nonnull @.str, i32 noundef 632, ptr noundef nonnull @__func__.dsa_gen) #7
  %21 = load i32, ptr %12, align 4, !tbaa !16
  tail call void (i32, i32, ptr, ...) @ERR_set_error(i32 noundef 57, i32 noundef 786691, ptr noundef nonnull @.str.14, i32 noundef %21) #7
  br label %91

22:                                               ; preds = %.thread, %19
  %23 = getelementptr inbounds nuw i8, ptr %0, i64 88
  store ptr %1, ptr %23, align 8, !tbaa !36
  %24 = getelementptr inbounds nuw i8, ptr %0, i64 96
  store ptr %2, ptr %24, align 8, !tbaa !37
  %25 = tail call ptr @BN_GENCB_new() #7
  %.not = icmp eq ptr %25, null
  br i1 %.not, label %27, label %26

26:                                               ; preds = %22
  tail call void @BN_GENCB_set(ptr noundef nonnull %25, ptr noundef nonnull @dsa_gencb, ptr noundef nonnull %0) #7
  br label %27

27:                                               ; preds = %26, %22
  %28 = tail call ptr @ossl_dsa_get0_params(ptr noundef nonnull %9) #7
  %29 = getelementptr inbounds nuw i8, ptr %0, i64 8
  %30 = load ptr, ptr %29, align 8, !tbaa !24
  %.not69 = icmp eq ptr %30, null
  br i1 %.not69, label %33, label %31

31:                                               ; preds = %27
  %32 = tail call i32 @ossl_ffc_params_copy(ptr noundef %28, ptr noundef nonnull %30) #7
  %.not70 = icmp eq i32 %32, 0
  br i1 %.not70, label %91, label %33

33:                                               ; preds = %31, %27
  %34 = getelementptr inbounds nuw i8, ptr %0, i64 40
  %35 = load ptr, ptr %34, align 8, !tbaa !22
  %.not71 = icmp eq ptr %35, null
  br i1 %.not71, label %40, label %36

36:                                               ; preds = %33
  %37 = getelementptr inbounds nuw i8, ptr %0, i64 48
  %38 = load i64, ptr %37, align 8, !tbaa !23
  %39 = tail call i32 @ossl_ffc_params_set_seed(ptr noundef %28, ptr noundef nonnull %35, i64 noundef %38) #7
  %.not72 = icmp eq i32 %39, 0
  br i1 %.not72, label %91, label %40

40:                                               ; preds = %36, %33
  %41 = getelementptr inbounds nuw i8, ptr %0, i64 56
  %42 = load i32, ptr %41, align 8, !tbaa !17
  %.not73 = icmp eq i32 %42, -1
  br i1 %.not73, label %47, label %43

43:                                               ; preds = %40
  tail call void @ossl_ffc_params_set_gindex(ptr noundef %28, i32 noundef %42) #7
  %44 = getelementptr inbounds nuw i8, ptr %0, i64 64
  %45 = load i32, ptr %44, align 8, !tbaa !18
  %.not75 = icmp eq i32 %45, -1
  br i1 %.not75, label %51, label %46

46:                                               ; preds = %43
  tail call void @ossl_ffc_params_set_pcounter(ptr noundef %28, i32 noundef %45) #7
  br label %51

47:                                               ; preds = %40
  %48 = getelementptr inbounds nuw i8, ptr %0, i64 68
  %49 = load i32, ptr %48, align 4, !tbaa !19
  %.not74 = icmp eq i32 %49, 0
  br i1 %.not74, label %51, label %50

50:                                               ; preds = %47
  tail call void @ossl_ffc_params_set_h(ptr noundef %28, i32 noundef %49) #7
  br label %51

51:                                               ; preds = %47, %50, %43, %46
  %52 = getelementptr inbounds nuw i8, ptr %0, i64 72
  %53 = load ptr, ptr %52, align 8, !tbaa !20
  %.not76 = icmp eq ptr %53, null
  br i1 %.not76, label %57, label %54

54:                                               ; preds = %51
  %55 = getelementptr inbounds nuw i8, ptr %0, i64 80
  %56 = load ptr, ptr %55, align 8, !tbaa !21
  tail call void @ossl_ffc_set_digest(ptr noundef %28, ptr noundef nonnull %53, ptr noundef %56) #7
  br label %57

57:                                               ; preds = %54, %51
  %58 = getelementptr inbounds nuw i8, ptr %0, i64 16
  %59 = load i32, ptr %58, align 8, !tbaa !3
  %60 = and i32 %59, 4
  %.not77 = icmp eq i32 %60, 0
  br i1 %.not77, label %71, label %61

61:                                               ; preds = %57
  %62 = load i32, ptr %12, align 4, !tbaa !16
  %63 = getelementptr inbounds nuw i8, ptr %0, i64 24
  %64 = load i64, ptr %63, align 8, !tbaa !14
  %65 = trunc i64 %64 to i32
  %66 = getelementptr inbounds nuw i8, ptr %0, i64 32
  %67 = load i64, ptr %66, align 8, !tbaa !15
  %68 = trunc i64 %67 to i32
  %69 = tail call i32 @ossl_dsa_generate_ffc_parameters(ptr noundef nonnull %9, i32 noundef %62, i32 noundef %65, i32 noundef %68, ptr noundef %25) #7
  %70 = icmp slt i32 %69, 1
  br i1 %70, label %91, label %71

71:                                               ; preds = %61, %57
  %72 = load i32, ptr %12, align 4, !tbaa !16
  %73 = icmp eq i32 %72, 1
  %74 = zext i1 %73 to i32
  tail call void @ossl_ffc_params_enable_flags(ptr noundef %28, i32 noundef 4, i32 noundef %74) #7
  %75 = load i32, ptr %58, align 8, !tbaa !3
  %76 = and i32 %75, 3
  %.not78 = icmp eq i32 %76, 0
  br i1 %.not78, label %92, label %77

77:                                               ; preds = %71
  %78 = load ptr, ptr %28, align 8, !tbaa !38
  %79 = icmp eq ptr %78, null
  br i1 %79, label %91, label %80

80:                                               ; preds = %77
  %81 = getelementptr inbounds nuw i8, ptr %28, i64 8
  %82 = load ptr, ptr %81, align 8, !tbaa !41
  %83 = icmp eq ptr %82, null
  br i1 %83, label %91, label %84

84:                                               ; preds = %80
  %85 = getelementptr inbounds nuw i8, ptr %28, i64 16
  %86 = load ptr, ptr %85, align 8, !tbaa !42
  %87 = icmp eq ptr %86, null
  br i1 %87, label %91, label %88

88:                                               ; preds = %84
  %89 = tail call i32 @DSA_generate_key(ptr noundef nonnull %9) #7
  %90 = icmp slt i32 %89, 1
  br i1 %90, label %91, label %92

91:                                               ; preds = %61, %77, %80, %84, %88, %36, %31, %20
  %.057.ph = phi ptr [ null, %20 ], [ %25, %31 ], [ %25, %36 ], [ %25, %88 ], [ %25, %84 ], [ %25, %80 ], [ %25, %77 ], [ %25, %61 ]
  tail call void @DSA_free(ptr noundef nonnull %9) #7
  br label %92

92:                                               ; preds = %88, %71, %91
  %.05780 = phi ptr [ %.057.ph, %91 ], [ %25, %71 ], [ %25, %88 ]
  %.058 = phi ptr [ null, %91 ], [ %9, %71 ], [ %9, %88 ]
  tail call void @BN_GENCB_free(ptr noundef %.05780) #7
  br label %93

93:                                               ; preds = %7, %3, %92
  %.0 = phi ptr [ %.058, %92 ], [ null, %3 ], [ null, %7 ]
  ret ptr %.0
}